(lp1
(lp2
I37
aI0
aI0
aI0
aa(lp3
I53
aI0
aI0
aI0
aa(lp4
I18
aI0
aI0
aI0
aa(lp5
I78
aI0
aI0
aI0
aa(lp6
I33
aI0
aI0
aI0
aa(lp7
I60
aI0
aI0
aI0
aa(lp8
I76
aI0
aI0
aI0
aa(lp9
I29
aI0
aI0
aI0
aa(lp10
I36
aI0
aI0
aI0
aa(lp11
I43
aI0
aI0
aI0
aa(lp12
I12
aI0
aI0
aI0
aa(lp13
I21
aI0
aI0
aI0
aa(lp14
I23
aI0
aI0
aI0
aa(lp15
I19
aI0
aI0
aI0
aa(lp16
I70
aI0
aI0
aI0
aa(lp17
I63
aI0
aI0
aI0
aa(lp18
I41
aI0
aI0
aI0
aa(lp19
I24
aI0
aI0
aI0
aa(lp20
I58
aI0
aI0
aI0
aa(lp21
I92
aI0
aI0
aI0
aa(lp22
I11
aI0
aI0
aI0
aa(lp23
I44
aI0
aI0
aI0
aa(lp24
I27
aI0
aI0
aI0
aa(lp25
I63
aI0
aI0
aI0
aa(lp26
I49
aI0
aI0
aI0
aa(lp27
I22
aI0
aI0
aI0
aa(lp28
I29
aI0
aI0
aI0
aa(lp29
I13
aI0
aI0
aI0
aa(lp30
I39
aI0
aI0
aI0
aa(lp31
I23
aI0
aI0
aI0
aa(lp32
I51
aI0
aI0
aI0
aa(lp33
I69
aI0
aI0
aI0
aa(lp34
I23
aI0
aI0
aI0
aa(lp35
I45
aI0
aI0
aI0
aa(lp36
I74
aI0
aI0
aI0
aa(lp37
I10
aI0
aI0
aI0
aa(lp38
I26
aI0
aI0
aI0
aa(lp39
I44
aI0
aI0
aI0
aa(lp40
I22
aI0
aI0
aI0
aa(lp41
I67
aI0
aI0
aI0
aa(lp42
I21
aI0
aI0
aI0
aa(lp43
I69
aI0
aI0
aI0
aa(lp44
I41
aI0
aI0
aI0
aa(lp45
I68
aI0
aI0
aI0
aa(lp46
I34
aI0
aI0
aI0
aa(lp47
I46
aI0
aI0
aI0
aa(lp48
I14
aI0
aI0
aI0
aa(lp49
I38
aI0
aI0
aI0
aa(lp50
I26
aI0
aI0
aI0
aa(lp51
I67
aI0
aI0
aI0
aa(lp52
I10
aI0
aI0
aI0
aa(lp53
I28
aI0
aI0
aI0
aa(lp54
I64
aI0
aI0
aI0
aa(lp55
I17
aI0
aI0
aI0
aa(lp56
I51
aI0
aI0
aI0
aa(lp57
I86
aI0
aI0
aI0
aa(lp58
I3
aI0
aI0
aI0
aa(lp59
I10
aI0
aI0
aI0
aa(lp60
I47
aI0
aI0
aI0
aa(lp61
I21
aI0
aI0
aI0
aa(lp62
I6
aI0
aI0
aI0
aa(lp63
I13
aI0
aI0
aI0
aa.