(lp1
(lp2
I36
aI0
aI0
aI0
aa(lp3
I57
aI0
aI0
aI0
aa(lp4
I18
aI0
aI0
aI0
aa(lp5
I80
aI0
aI0
aI0
aa(lp6
I25
aI0
aI0
aI0
aa(lp7
I60
aI0
aI0
aI0
aa(lp8
I76
aI0
aI0
aI0
aa(lp9
I31
aI0
aI0
aI0
aa(lp10
I32
aI0
aI0
aI0
aa(lp11
I44
aI0
aI0
aI0
aa(lp12
I13
aI0
aI0
aI0
aa(lp13
I22
aI0
aI0
aI0
aa(lp14
I22
aI0
aI0
aI0
aa(lp15
I20
aI0
aI0
aI0
aa(lp16
I69
aI0
aI0
aI0
aa(lp17
I65
aI0
aI0
aI0
aa(lp18
I36
aI0
aI0
aI0
aa(lp19
I30
aI0
aI0
aI0
aa(lp20
I62
aI0
aI0
aI0
aa(lp21
I87
aI0
aI0
aI0
aa(lp22
I13
aI0
aI0
aI0
aa(lp23
I45
aI0
aI0
aI0
aa(lp24
I26
aI0
aI0
aI0
aa(lp25
I63
aI0
aI0
aI0
aa(lp26
I49
aI0
aI0
aI0
aa(lp27
I23
aI0
aI0
aI0
aa(lp28
I32
aI0
aI0
aI0
aa(lp29
I15
aI0
aI0
aI0
aa(lp30
I41
aI0
aI0
aI0
aa(lp31
I24
aI0
aI0
aI0
aa(lp32
I50
aI0
aI0
aI0
aa(lp33
I70
aI0
aI0
aI0
aa(lp34
I23
aI0
aI0
aI0
aa(lp35
I44
aI0
aI0
aI0
aa(lp36
I75
aI0
aI0
aI0
aa(lp37
I14
aI0
aI0
aI0
aa(lp38
I29
aI0
aI0
aI0
aa(lp39
I43
aI0
aI0
aI0
aa(lp40
I21
aI0
aI0
aI0
aa(lp41
I66
aI0
aI0
aI0
aa(lp42
I26
aI0
aI0
aI0
aa(lp43
I69
aI0
aI0
aI0
aa(lp44
I42
aI0
aI0
aI0
aa(lp45
I39
aI0
aI0
aI0
aa(lp46
I46
aI0
aI0
aI0
aa(lp47
I14
aI0
aI0
aI0
aa(lp48
I38
aI0
aI0
aI0
aa(lp49
I31
aI0
aI0
aI0
aa(lp50
I68
aI0
aI0
aI0
aa(lp51
I17
aI0
aI0
aI0
aa(lp52
I33
aI0
aI0
aI0
aa(lp53
I68
aI0
aI0
aI0
aa(lp54
I23
aI0
aI0
aI0
aa(lp55
I54
aI0
aI0
aI0
aa(lp56
I86
aI0
aI0
aI0
aa(lp57
I3
aI0
aI0
aI0
aa(lp58
I11
aI0
aI0
aI0
aa(lp59
I46
aI0
aI0
aI0
aa(lp60
I22
aI0
aI0
aI0
aa(lp61
I7
aI0
aI0
aI0
aa(lp62
I13
aI0
aI0
aI0
aa.