(lp1
(lp2
I6
aI0
aI2
aI0
aa(lp3
I0
aI0
aI0
aI0
aa(lp4
I0
aI0
aI0
aI0
aa(lp5
I25
aI0
aI12
aI0
aa(lp6
I0
aI0
aI0
aI0
aa(lp7
I0
aI0
aI0
aI0
aa(lp8
I0
aI0
aI0
aI0
aa(lp9
I0
aI0
aI0
aI0
aa(lp10
I0
aI0
aI0
aI0
aa(lp11
I0
aI0
aI0
aI0
aa(lp12
I0
aI0
aI0
aI0
aa(lp13
I6
aI0
aI1
aI1
aa(lp14
I0
aI0
aI0
aI0
aa(lp15
I0
aI0
aI0
aI0
aa(lp16
I0
aI0
aI0
aI0
aa(lp17
I0
aI0
aI0
aI0
aa.