(lp1
(lp2
I26
aI0
aI0
aI4
aa(lp3
I56
aI0
aI0
aI20
aa(lp4
I33
aI0
aI0
aI0
aa(lp5
I5
aI0
aI0
aI0
aa(lp6
I11
aI0
aI0
aI0
aa(lp7
I7
aI0
aI0
aI0
aa(lp8
I38
aI0
aI0
aI0
aa(lp9
I75
aI0
aI0
aI0
aa(lp10
I97
aI0
aI0
aI0
aa(lp11
I27
aI0
aI0
aI0
aa(lp12
I29
aI0
aI0
aI0
aa(lp13
I56
aI0
aI0
aI0
aa(lp14
I17
aI0
aI0
aI2
aa(lp15
I67
aI0
aI0
aI4
aa(lp16
I24
aI0
aI0
aI0
aa(lp17
I56
aI0
aI0
aI0
aa(lp18
I79
aI0
aI0
aI0
aa(lp19
I13
aI0
aI0
aI0
aa(lp20
I2
aI0
aI0
aI0
aa(lp21
I48
aI0
aI0
aI0
aa(lp22
I2
aI0
aI0
aI0
aa(lp23
I67
aI0
aI0
aI0
aa(lp24
I72
aI0
aI0
aI0
aa(lp25
I21
aI0
aI0
aI0
aa(lp26
I58
aI0
aI0
aI4
aa(lp27
I14
aI0
aI0
aI0
aa(lp28
I38
aI0
aI0
aI0
aa(lp29
I15
aI0
aI0
aI0
aa(lp30
I7
aI0
aI0
aI0
aa(lp31
I73
aI0
aI0
aI0
aa(lp32
I17
aI0
aI0
aI0
aa(lp33
I65
aI0
aI0
aI0
aa(lp34
I15
aI0
aI0
aI0
aa(lp35
I26
aI0
aI0
aI0
aa(lp36
I12
aI0
aI0
aI0
aa(lp37
I42
aI0
aI0
aI0
aa(lp38
I13
aI0
aI0
aI2
aa(lp39
I21
aI0
aI0
aI4
aa(lp40
I61
aI0
aI0
aI0
aa(lp41
I60
aI0
aI0
aI0
aa(lp42
I18
aI0
aI0
aI0
aa(lp43
I34
aI0
aI0
aI0
aa(lp44
I2
aI0
aI0
aI0
aa(lp45
I16
aI0
aI0
aI0
aa(lp46
I71
aI0
aI0
aI0
aa(lp47
I48
aI0
aI0
aI0
aa(lp48
I6
aI0
aI0
aI0
aa(lp49
I4
aI0
aI0
aI0
aa(lp50
I6
aI0
aI0
aI0
aa(lp51
I4
aI0
aI0
aI0
aa(lp52
I13
aI0
aI0
aI0
aa(lp53
I16
aI0
aI0
aI0
aa(lp54
I70
aI0
aI0
aI0
aa(lp55
I4
aI0
aI0
aI0
aa(lp56
I5
aI0
aI0
aI0
aa.