(lp1
(lp2
I18
aI0
aI0
aI0
aa(lp3
I56
aI0
aI0
aI0
aa(lp4
I57
aI16
aI8
aI2
aa(lp5
I49
aI0
aI5
aI0
aa(lp6
I8
aI1
aI1
aI0
aa(lp7
I71
aI0
aI5
aI0
aa(lp8
I51
aI20
aI7
aI0
aa(lp9
I79
aI9
aI8
aI1
aa(lp10
I70
aI0
aI0
aI0
aa(lp11
I10
aI0
aI0
aI0
aa(lp12
I35
aI0
aI5
aI0
aa(lp13
I39
aI0
aI0
aI0
aa(lp14
I6
aI0
aI0
aI0
aa(lp15
I21
aI0
aI0
aI2
aa(lp16
I18
aI0
aI0
aI0
aa(lp17
I22
aI0
aI0
aI0
aa(lp18
I83
aI1
aI2
aI0
aa(lp19
I163
aI4
aI8
aI0
aa(lp20
I31
aI0
aI1
aI0
aa(lp21
I66
aI10
aI4
aI0
aa(lp22
I40
aI1
aI2
aI0
aa(lp23
I88
aI9
aI2
aI0
aa(lp24
I117
aI4
aI6
aI0
aa(lp25
I13
aI0
aI0
aI0
aa(lp26
I45
aI0
aI0
aI0
aa(lp27
I79
aI0
aI0
aI0
aa(lp28
I26
aI0
aI0
aI0
aa(lp29
I63
aI0
aI0
aI0
aa(lp30
I49
aI0
aI0
aI0
aa(lp31
I23
aI0
aI0
aI0
aa(lp32
I32
aI0
aI0
aI0
aa(lp33
I15
aI0
aI0
aI0
aa(lp34
I41
aI0
aI0
aI0
aa(lp35
I24
aI0
aI0
aI0
aa(lp36
I50
aI0
aI0
aI0
aa(lp37
I70
aI0
aI0
aI0
aa(lp38
I25
aI0
aI0
aI0
aa(lp39
I23
aI0
aI0
aI0
aa(lp40
I44
aI0
aI0
aI0
aa(lp41
I75
aI0
aI0
aI0
aa(lp42
I62
aI0
aI0
aI0
aa(lp43
I14
aI0
aI0
aI0
aa(lp44
I29
aI0
aI0
aI0
aa(lp45
I43
aI0
aI0
aI0
aa(lp46
I21
aI0
aI0
aI0
aa(lp47
I51
aI0
aI0
aI0
aa(lp48
I66
aI0
aI0
aI0
aa(lp49
I65
aI0
aI0
aI0
aa(lp50
I26
aI0
aI0
aI0
aa(lp51
I69
aI0
aI0
aI0
aa(lp52
I42
aI0
aI0
aI0
aa(lp53
I39
aI0
aI0
aI0
aa(lp54
I46
aI0
aI0
aI0
aa(lp55
I14
aI0
aI0
aI0
aa(lp56
I38
aI0
aI0
aI0
aa(lp57
I31
aI0
aI0
aI0
aa(lp58
I68
aI0
aI0
aI0
aa(lp59
I17
aI0
aI0
aI0
aa(lp60
I33
aI0
aI0
aI0
aa(lp61
I68
aI0
aI0
aI0
aa(lp62
I23
aI0
aI0
aI0
aa(lp63
I34
aI0
aI0
aI0
aa(lp64
I54
aI0
aI0
aI0
aa(lp65
I86
aI0
aI0
aI0
aa(lp66
I3
aI0
aI0
aI0
aa(lp67
I11
aI0
aI0
aI0
aa(lp68
I11
aI0
aI0
aI0
aa(lp69
I46
aI0
aI0
aI0
aa(lp70
I22
aI0
aI0
aI0
aa(lp71
I7
aI0
aI0
aI0
aa(lp72
I13
aI0
aI0
aI0
aa.