(lp1
(lp2
I57
aI16
aI8
aI2
aa(lp3
I49
aI0
aI5
aI0
aa(lp4
I8
aI1
aI1
aI0
aa(lp5
I71
aI0
aI5
aI0
aa(lp6
I51
aI20
aI7
aI0
aa(lp7
I79
aI9
aI8
aI1
aa(lp8
I70
aI0
aI0
aI0
aa(lp9
I10
aI0
aI0
aI0
aa(lp10
I35
aI0
aI5
aI0
aa(lp11
I39
aI0
aI0
aI0
aa(lp12
I6
aI0
aI0
aI0
aa(lp13
I21
aI0
aI0
aI2
aa(lp14
I18
aI0
aI0
aI0
aa(lp15
I22
aI0
aI0
aI0
aa(lp16
I82
aI1
aI2
aI0
aa(lp17
I163
aI4
aI8
aI0
aa(lp18
I31
aI0
aI1
aI0
aa(lp19
I66
aI10
aI4
aI0
aa(lp20
I40
aI1
aI2
aI0
aa(lp21
I88
aI9
aI2
aI0
aa(lp22
I117
aI4
aI6
aI0
aa.